(lp0
I00
a(lp1
(lp2
VREADME.html
p3
aV<p><a href="https://projecteuler.net/problem=10">The original source of problem</a></p>\u000a
p4
aS'/media/My_Documents_Extended/Windows 8/Usu\xc3\xa1rios/Neto/OneDrive_/Programa\xc3\xa7\xc3\xa3o/DestructHub/ProjectEuler/Problem10/README.md'
p5
aF1433168782.0
aaa(lp6
a.